; Function Attrs: mustprogress nounwind uwtable
define dso_local noundef ptr @_ZN5clang19AnalysisDeclContext13getCFGStmtMapEv(ptr noundef nonnull align 8 dereferenceable(248) %0) local_unnamed_addr #0 align 2 {
  %2 = getelementptr inbounds nuw i8, ptr %0, i64 32
  %3 = load ptr, ptr %2, align 8
  %.not5 = icmp eq ptr %3, null
  br i1 %.not5, label %4, label %_ZNSt10unique_ptrIN5clang10CFGStmtMapESt14default_deleteIS1_EE5resetEPS1_.exit

4:                                                ; preds = %1
  %5 = tail call noundef ptr @_ZN5clang19AnalysisDeclContext6getCFGEv(ptr noundef nonnull align 8 dereferenceable(248) %0)
  %.not = icmp eq ptr %5, null
  br i1 %.not, label %_ZNSt10unique_ptrIN5clang10CFGStmtMapESt14default_deleteIS1_EE5resetEPS1_.exit, label %6

6:                                                ; preds = %4
  %7 = tail call noundef nonnull align 8 dereferenceable(8) ptr @_ZN5clang19AnalysisDeclContext12getParentMapEv(ptr noundef nonnull align 8 dereferenceable(248) %0)
  %8 = tail call noundef ptr @_ZN5clang10CFGStmtMap5BuildEPNS_3CFGEPNS_9ParentMapE(ptr noundef nonnull %5, ptr noundef nonnull %7) #22
  %9 = load ptr, ptr %2, align 8
  store ptr %8, ptr %2, align 8
  %.not.i.i = icmp eq ptr %9, null
  br i1 %.not.i.i, label %_ZNSt10unique_ptrIN5clang10CFGStmtMapESt14default_deleteIS1_EE5resetEPS1_.exit, label %_ZNKSt14default_deleteIN5clang10CFGStmtMapEEclEPS1_.exit.i.i

_ZNKSt14default_deleteIN5clang10CFGStmtMapEEclEPS1_.exit.i.i: ; preds = %6
  tail call void @_ZN5clang10CFGStmtMapD1Ev(ptr noundef nonnull align 8 dereferenceable(16) %9) #22
  tail call void @_ZdlPvm(ptr noundef nonnull %9, i64 noundef 16) #23
  %.pre = load ptr, ptr %2, align 8
  br label %_ZNSt10unique_ptrIN5clang10CFGStmtMapESt14default_deleteIS1_EE5resetEPS1_.exit

_ZNSt10unique_ptrIN5clang10CFGStmtMapESt14default_deleteIS1_EE5resetEPS1_.exit: ; preds = %_ZNKSt14default_deleteIN5clang10CFGStmtMapEEclEPS1_.exit.i.i, %6, %1, %4
  %.0 = phi ptr [ null, %4 ], [ %3, %1 ], [ %8, %6 ], [ %.pre, %_ZNKSt14default_deleteIN5clang10CFGStmtMapEEclEPS1_.exit.i.i ]
  ret ptr %.0
}